; ModuleID = 'source-C-CXX/44/2363.c'
source_filename = "source-C-CXX/44/2363.c"
target datalayout = "e-m:e-p270:32:32-p271:32:32-p272:64:64-i64:64-f80:128-n8:16:32:64-S128"
target triple = "x86_64-pc-linux-gnu"

@.str = private unnamed_addr constant [3 x i8] c"%s\00", align 1
@.str.1 = private unnamed_addr constant [3 x i8] c"%d\00", align 1

; Function Attrs: nofree nounwind sspstrong uwtable
define dso_local i32 @main() local_unnamed_addr #0 {
  %1 = alloca [51 x i8], align 16
  %2 = alloca [51 x i8], align 16
  %3 = getelementptr inbounds [51 x i8], [51 x i8]* %1, i64 0, i64 0
  call void @llvm.lifetime.start.p0i8(i64 51, i8* nonnull %3) #4
  %4 = getelementptr inbounds [51 x i8], [51 x i8]* %2, i64 0, i64 0
  call void @llvm.lifetime.start.p0i8(i64 51, i8* nonnull %4) #4
  %5 = call i32 (i8*, ...) @__isoc99_scanf(i8* getelementptr inbounds ([3 x i8], [3 x i8]* @.str, i64 0, i64 0), i8* nonnull %3)
  %6 = call i32 (i8*, ...) @__isoc99_scanf(i8* getelementptr inbounds ([3 x i8], [3 x i8]* @.str, i64 0, i64 0), i8* nonnull %4)
  %7 = call i64 @strlen(i8* noundef nonnull %4) #5
  %8 = call i64 @strlen(i8* noundef nonnull %3) #5
  %9 = load i8, i8* %3, align 16
  %10 = icmp eq i64 %8, 0
  br i1 %10, label %31, label %11

11:                                               ; preds = %0
  %12 = add i64 %8, -1
  %13 = add i64 %7, 1
  %14 = sub i64 %13, %8
  %15 = and i64 %12, 4294967295
  %16 = getelementptr inbounds [51 x i8], [51 x i8]* %1, i64 0, i64 %12
  br label %17

17:                                               ; preds = %11, %28
  %18 = phi i64 [ 0, %11 ], [ %29, %28 ]
  %19 = getelementptr inbounds [51 x i8], [51 x i8]* %2, i64 0, i64 %18
  %20 = load i8, i8* %19, align 1, !tbaa !5
  %21 = icmp eq i8 %20, %9
  br i1 %21, label %22, label %28

22:                                               ; preds = %17
  %23 = add nuw nsw i64 %15, %18
  %24 = getelementptr inbounds [51 x i8], [51 x i8]* %2, i64 0, i64 %23
  %25 = load i8, i8* %24, align 1, !tbaa !5
  %26 = load i8, i8* %16, align 1, !tbaa !5
  %27 = icmp eq i8 %25, %26
  br i1 %27, label %36, label %28

28:                                               ; preds = %22, %17
  %29 = add nuw i64 %18, 1
  %30 = icmp eq i64 %29, %14
  br i1 %30, label %43, label %17, !llvm.loop !8

31:                                               ; preds = %0, %40
  %32 = phi i64 [ %41, %40 ], [ 0, %0 ]
  %33 = getelementptr inbounds [51 x i8], [51 x i8]* %2, i64 0, i64 %32
  %34 = load i8, i8* %33, align 1, !tbaa !5
  %35 = icmp eq i8 %34, %9
  br i1 %35, label %36, label %40

36:                                               ; preds = %22, %31
  %37 = phi i64 [ %32, %31 ], [ %18, %22 ]
  %38 = trunc i64 %37 to i32
  %39 = call i32 (i8*, ...) @printf(i8* nonnull dereferenceable(1) getelementptr inbounds ([3 x i8], [3 x i8]* @.str.1, i64 0, i64 0), i32 %38)
  br label %43

40:                                               ; preds = %31
  %41 = add nuw i64 %32, 1
  %42 = icmp eq i64 %32, %7
  br i1 %42, label %43, label %31, !llvm.loop !8

43:                                               ; preds = %28, %40, %36
  call void @llvm.lifetime.end.p0i8(i64 51, i8* nonnull %4) #4
  call void @llvm.lifetime.end.p0i8(i64 51, i8* nonnull %3) #4
  ret i32 0
}

; Function Attrs: argmemonly mustprogress nofree nosync nounwind willreturn
declare void @llvm.lifetime.start.p0i8(i64 immarg, i8* nocapture) #1

; Function Attrs: nofree nounwind
declare noundef i32 @__isoc99_scanf(i8* nocapture noundef readonly, ...) local_unnamed_addr #2

; Function Attrs: argmemonly mustprogress nofree nounwind readonly willreturn
declare i64 @strlen(i8* nocapture) local_unnamed_addr #3

; Function Attrs: nofree nounwind
declare noundef i32 @printf(i8* nocapture noundef readonly, ...) local_unnamed_addr #2

; Function Attrs: argmemonly mustprogress nofree nosync nounwind willreturn
declare void @llvm.lifetime.end.p0i8(i64 immarg, i8* nocapture) #1


!llvm.module.flags = !{!0, !1, !2, !3}
!llvm.ident = !{!4}

!0 = !{i32 1, !"wchar_size", i32 4}
!1 = !{i32 7, !"PIC Level", i32 2}
!2 = !{i32 7, !"PIE Level", i32 2}
!3 = !{i32 7, !"uwtable", i32 1}
!4 = !{!"clang version 13.0.0"}
!5 = !{!6, !6, i64 0}
!6 = !{!"omnipotent char", !7, i64 0}
!7 = !{!"Simple C/C++ TBAA"}
!8 = distinct !{!8, !9}
!9 = !{!"llvm.loop.mustprogress"}
